; Function Attrs: mustprogress nofree nounwind willreturn memory(read) uwtable
define dso_local noundef i32 @_ZNK7doctest6String7compareERKS0_b(ptr noundef nonnull readonly align 8 captures(none) dereferenceable(24) %0, ptr noundef nonnull readonly align 8 captures(none) dereferenceable(24) %1, i1 noundef zeroext %2) local_unnamed_addr #20 align 2 {
  %4 = getelementptr inbounds nuw i8, ptr %1, i64 23
  %5 = load i8, ptr %4, align 1, !tbaa !38
  %6 = load ptr, ptr %1, align 8
  %7 = icmp slt i8 %5, 0
  %.0.i.i = select i1 %7, ptr %6, ptr %1
  %8 = getelementptr inbounds nuw i8, ptr %0, i64 23
  %9 = load i8, ptr %8, align 1, !tbaa !38
  %10 = load ptr, ptr %0, align 8
  %11 = icmp slt i8 %9, 0
  %.0.i.i.i = select i1 %11, ptr %10, ptr %0
  br i1 %2, label %12, label %28

12:                                               ; preds = %3
  %13 = load i8, ptr %.0.i.i.i, align 1, !tbaa !38
  %14 = sext i8 %13 to i32
  %15 = tail call i32 @tolower(i32 noundef %14) #52
  %16 = load i8, ptr %.0.i.i, align 1, !tbaa !38
  %17 = sext i8 %16 to i32
  %18 = tail call i32 @tolower(i32 noundef %17) #52
  %.not13.i.i = icmp ne i32 %15, %18
  %.not1114.i.i = icmp eq i8 %13, 0
  %or.cond15.i.i = or i1 %.not1114.i.i, %.not13.i.i
  br i1 %or.cond15.i.i, label %_ZN7doctest12_GLOBAL__N_17stricmpEPKcS2_.exit.i, label %.lr.ph.i.i

.lr.ph.i.i:                                       ; preds = %12, %.lr.ph.i.i
  %.0917.i.i = phi ptr [ %20, %.lr.ph.i.i ], [ %.0.i.i, %12 ]
  %.01016.i.i = phi ptr [ %19, %.lr.ph.i.i ], [ %.0.i.i.i, %12 ]
  %19 = getelementptr inbounds nuw i8, ptr %.01016.i.i, i64 1
  %20 = getelementptr inbounds nuw i8, ptr %.0917.i.i, i64 1
  %21 = load i8, ptr %19, align 1, !tbaa !38
  %22 = sext i8 %21 to i32
  %23 = tail call i32 @tolower(i32 noundef %22) #52
  %24 = load i8, ptr %20, align 1, !tbaa !38
  %25 = sext i8 %24 to i32
  %26 = tail call i32 @tolower(i32 noundef %25) #52
  %.not.i.i = icmp ne i32 %23, %26
  %.not11.i.i = icmp eq i8 %21, 0
  %or.cond.i.i = or i1 %.not11.i.i, %.not.i.i
  br i1 %or.cond.i.i, label %_ZN7doctest12_GLOBAL__N_17stricmpEPKcS2_.exit.i, label %.lr.ph.i.i, !llvm.loop !63

_ZN7doctest12_GLOBAL__N_17stricmpEPKcS2_.exit.i:  ; preds = %.lr.ph.i.i, %12
  %.lcssa12.i.i = phi i32 [ %15, %12 ], [ %23, %.lr.ph.i.i ]
  %.lcssa.i.i = phi i32 [ %18, %12 ], [ %26, %.lr.ph.i.i ]
  %27 = sub nsw i32 %.lcssa12.i.i, %.lcssa.i.i
  br label %_ZNK7doctest6String7compareEPKcb.exit

28:                                               ; preds = %3
  %29 = tail call i32 @strcmp(ptr noundef nonnull dereferenceable(1) %.0.i.i.i, ptr noundef nonnull readonly dereferenceable(1) %.0.i.i) #52
  br label %_ZNK7doctest6String7compareEPKcb.exit

_ZNK7doctest6String7compareEPKcb.exit:            ; preds = %_ZN7doctest12_GLOBAL__N_17stricmpEPKcS2_.exit.i, %28
  %.0.i = phi i32 [ %27, %_ZN7doctest12_GLOBAL__N_17stricmpEPKcS2_.exit.i ], [ %29, %28 ]
  ret i32 %.0.i
}